; ModuleID = 'source-C-CXX/61/3349.c'
source_filename = "source-C-CXX/61/3349.c"
target datalayout = "e-m:e-p270:32:32-p271:32:32-p272:64:64-i64:64-f80:128-n8:16:32:64-S128"
target triple = "x86_64-pc-linux-gnu"

%struct._IO_FILE = type { i32, i8*, i8*, i8*, i8*, i8*, i8*, i8*, i8*, i8*, i8*, i8*, %struct._IO_marker*, %struct._IO_FILE*, i32, i32, i64, i16, i8, [1 x i8], i8*, i64, %struct._IO_codecvt*, %struct._IO_wide_data*, %struct._IO_FILE*, i8*, i64, i32, [20 x i8] }
%struct._IO_marker = type opaque
%struct._IO_codecvt = type opaque
%struct._IO_wide_data = type opaque

@.str = private unnamed_addr constant [3 x i8] c"%s\00", align 1
@stdin = external local_unnamed_addr global %struct._IO_FILE*, align 8

; Function Attrs: nofree nounwind sspstrong uwtable
define dso_local i32 @main() local_unnamed_addr #0 {
  %1 = alloca [255 x i8], align 16
  %2 = alloca [255 x [255 x i8]], align 16
  %3 = getelementptr inbounds [255 x i8], [255 x i8]* %1, i64 0, i64 0
  call void @llvm.lifetime.start.p0i8(i64 255, i8* nonnull %3) #5
  %4 = getelementptr inbounds [255 x [255 x i8]], [255 x [255 x i8]]* %2, i64 0, i64 0, i64 0
  call void @llvm.lifetime.start.p0i8(i64 65025, i8* nonnull %4) #5
  br label %5

5:                                                ; preds = %10, %0
  %6 = phi i64 [ %11, %10 ], [ 0, %0 ]
  %7 = phi i32 [ %12, %10 ], [ 0, %0 ]
  %8 = call i32 (i8*, ...) @__isoc99_scanf(i8* getelementptr inbounds ([3 x i8], [3 x i8]* @.str, i64 0, i64 0), i8* nonnull %3)
  %9 = icmp eq i32 %8, 0
  br i1 %9, label %19, label %10

10:                                               ; preds = %5
  %11 = add nuw i64 %6, 1
  %12 = add nuw nsw i32 %7, 1
  %13 = getelementptr inbounds [255 x [255 x i8]], [255 x [255 x i8]]* %2, i64 0, i64 %6, i64 0
  %14 = call i8* @strcpy(i8* noundef nonnull %13, i8* noundef nonnull %3) #5
  %15 = load %struct._IO_FILE*, %struct._IO_FILE** @stdin, align 8, !tbaa !5
  %16 = call i32 @getc(%struct._IO_FILE* %15) #5
  %17 = and i32 %16, 255
  %18 = icmp eq i32 %17, 10
  br i1 %18, label %22, label %5, !llvm.loop !9

19:                                               ; preds = %5
  %20 = trunc i64 %6 to i32
  %21 = icmp sgt i32 %20, 0
  br i1 %21, label %22, label %27

22:                                               ; preds = %10, %19
  %23 = phi i32 [ %20, %19 ], [ %12, %10 ]
  %24 = add nsw i32 %23, -1
  %25 = zext i32 %24 to i64
  %26 = zext i32 %23 to i64
  br label %28

27:                                               ; preds = %28, %19
  call void @llvm.lifetime.end.p0i8(i64 65025, i8* nonnull %4) #5
  call void @llvm.lifetime.end.p0i8(i64 255, i8* nonnull %3) #5
  ret i32 0

28:                                               ; preds = %22, %28
  %29 = phi i64 [ 0, %22 ], [ %35, %28 ]
  %30 = getelementptr inbounds [255 x [255 x i8]], [255 x [255 x i8]]* %2, i64 0, i64 %29, i64 0
  %31 = call i32 (i8*, ...) @printf(i8* nonnull dereferenceable(1) getelementptr inbounds ([3 x i8], [3 x i8]* @.str, i64 0, i64 0), i8* nonnull %30)
  %32 = icmp eq i64 %29, %25
  %33 = select i1 %32, i32 10, i32 32
  %34 = call i32 @putchar(i32 %33)
  %35 = add nuw nsw i64 %29, 1
  %36 = icmp eq i64 %35, %26
  br i1 %36, label %27, label %28, !llvm.loop !11
}

; Function Attrs: argmemonly mustprogress nofree nosync nounwind willreturn
declare void @llvm.lifetime.start.p0i8(i64 immarg, i8* nocapture) #1

; Function Attrs: nofree nounwind
declare noundef i32 @__isoc99_scanf(i8* nocapture noundef readonly, ...) local_unnamed_addr #2

; Function Attrs: argmemonly mustprogress nofree nounwind willreturn
declare i8* @strcpy(i8* noalias returned writeonly, i8* noalias nocapture readonly) local_unnamed_addr #3

; Function Attrs: argmemonly mustprogress nofree nosync nounwind willreturn
declare void @llvm.lifetime.end.p0i8(i64 immarg, i8* nocapture) #1

; Function Attrs: nofree nounwind
declare noundef i32 @printf(i8* nocapture noundef readonly, ...) local_unnamed_addr #2

; Function Attrs: nofree nounwind
declare noundef i32 @getc(%struct._IO_FILE* nocapture noundef) local_unnamed_addr #2

; Function Attrs: nofree nounwind
declare noundef i32 @putchar(i32 noundef) local_unnamed_addr #4


!llvm.module.flags = !{!0, !1, !2, !3}
!llvm.ident = !{!4}

!0 = !{i32 1, !"wchar_size", i32 4}
!1 = !{i32 7, !"PIC Level", i32 2}
!2 = !{i32 7, !"PIE Level", i32 2}
!3 = !{i32 7, !"uwtable", i32 1}
!4 = !{!"clang version 13.0.0"}
!5 = !{!6, !6, i64 0}
!6 = !{!"any pointer", !7, i64 0}
!7 = !{!"omnipotent char", !8, i64 0}
!8 = !{!"Simple C/C++ TBAA"}
!9 = distinct !{!9, !10}
!10 = !{!"llvm.loop.mustprogress"}
!11 = distinct !{!11, !10}
